; Function Attrs: nounwind uwtable
define internal fastcc range(i32 -1, 1) i32 @H5HF__hdr_prefix_decode(ptr noundef nonnull writeonly captures(none) %0, ptr noundef nonnull captures(none) %1) unnamed_addr #0 {
  %3 = load ptr, ptr %1, align 8, !tbaa !19
  %4 = load i8, ptr @H5HF_init_g, align 1, !tbaa !3, !range !7, !noundef !8
  %5 = trunc nuw i8 %4 to i1
  %6 = load i8, ptr @H5_libterm_g, align 1, !range !7
  %7 = trunc nuw i8 %6 to i1
  %8 = xor i1 %7, true
  %9 = select i1 %5, i1 true, i1 %8
  br i1 %9, label %10, label %42, !prof !9

10:                                               ; preds = %2
  %bcmp = tail call i32 @bcmp(ptr noundef nonnull dereferenceable(4) %3, ptr noundef nonnull dereferenceable(4) @.str.6, i64 4)
  %.not = icmp eq i32 %bcmp, 0
  br i1 %.not, label %15, label %11

11:                                               ; preds = %10
  %12 = load i64, ptr @H5E_HEAP_g, align 8, !tbaa !14
  %13 = load i64, ptr @H5E_BADVALUE_g, align 8, !tbaa !14
  %14 = tail call i32 (ptr, ptr, i32, i64, i64, ptr, ...) @H5E_printf_stack(ptr noundef nonnull @.str.4, ptr noundef nonnull @__func__.H5HF__hdr_prefix_decode, i32 noundef 206, i64 noundef %12, i64 noundef %13, ptr noundef nonnull @.str.7) #9
  br label %42

15:                                               ; preds = %10
  %16 = getelementptr inbounds nuw i8, ptr %3, i64 4
  %17 = load i8, ptr %16, align 1, !tbaa !16
  %.not20 = icmp eq i8 %17, 0
  br i1 %.not20, label %22, label %18

18:                                               ; preds = %15
  %19 = load i64, ptr @H5E_HEAP_g, align 8, !tbaa !14
  %20 = load i64, ptr @H5E_VERSION_g, align 8, !tbaa !14
  %21 = tail call i32 (ptr, ptr, i32, i64, i64, ptr, ...) @H5E_printf_stack(ptr noundef nonnull @.str.4, ptr noundef nonnull @__func__.H5HF__hdr_prefix_decode, i32 noundef 211, i64 noundef %19, i64 noundef %20, ptr noundef nonnull @.str.8) #9
  br label %42

22:                                               ; preds = %15
  %23 = getelementptr inbounds nuw i8, ptr %3, i64 5
  %24 = load i8, ptr %23, align 1, !tbaa !16
  %25 = zext i8 %24 to i32
  %26 = getelementptr inbounds nuw i8, ptr %0, i64 248
  store i32 %25, ptr %26, align 8, !tbaa !79
  %27 = getelementptr inbounds nuw i8, ptr %3, i64 6
  %28 = load i8, ptr %27, align 1, !tbaa !16
  %29 = zext i8 %28 to i32
  %30 = shl nuw nsw i32 %29, 8
  %31 = or disjoint i32 %30, %25
  store i32 %31, ptr %26, align 8, !tbaa !79
  %32 = getelementptr inbounds nuw i8, ptr %3, i64 7
  %33 = load i8, ptr %32, align 1, !tbaa !16
  %34 = zext i8 %33 to i32
  %35 = getelementptr inbounds nuw i8, ptr %0, i64 252
  store i32 %34, ptr %35, align 4, !tbaa !75
  %36 = getelementptr inbounds nuw i8, ptr %3, i64 8
  %37 = load i8, ptr %36, align 1, !tbaa !16
  %38 = zext i8 %37 to i32
  %39 = shl nuw nsw i32 %38, 8
  %40 = or disjoint i32 %39, %34
  store i32 %40, ptr %35, align 4, !tbaa !75
  %41 = getelementptr inbounds nuw i8, ptr %3, i64 9
  store ptr %41, ptr %1, align 8, !tbaa !19
  br label %42

42:                                               ; preds = %11, %18, %22, %2
  %.0 = phi i32 [ -1, %11 ], [ -1, %18 ], [ 0, %22 ], [ 0, %2 ]
  ret i32 %.0
}